; Function Attrs: nounwind uwtable
define internal fastcc noundef ptr @_readCreateCastStmt() unnamed_addr #0 {
  %1 = alloca i32, align 4
  %2 = tail call noundef ptr @palloc0(i64 noundef 40) #10
  store i32 249, ptr %2, align 4
  call void @llvm.lifetime.start.p0(i64 4, ptr nonnull %1) #10
  %3 = call ptr @pg_strtok(ptr noundef nonnull %1) #10
  %4 = call ptr @nodeRead(ptr noundef null, i32 noundef 0) #10
  %5 = getelementptr inbounds nuw i8, ptr %2, i64 8
  store ptr %4, ptr %5, align 8
  %6 = call ptr @pg_strtok(ptr noundef nonnull %1) #10
  %7 = call ptr @nodeRead(ptr noundef null, i32 noundef 0) #10
  %8 = getelementptr inbounds nuw i8, ptr %2, i64 16
  store ptr %7, ptr %8, align 8
  %9 = call ptr @pg_strtok(ptr noundef nonnull %1) #10
  %10 = call ptr @nodeRead(ptr noundef null, i32 noundef 0) #10
  %11 = getelementptr inbounds nuw i8, ptr %2, i64 24
  store ptr %10, ptr %11, align 8
  %12 = call ptr @pg_strtok(ptr noundef nonnull %1) #10
  %13 = call ptr @pg_strtok(ptr noundef nonnull %1) #10
  %14 = call i64 @strtol(ptr noundef nonnull captures(none) %13, ptr noundef null, i32 noundef 10) #10
  %15 = trunc i64 %14 to i32
  %16 = getelementptr inbounds nuw i8, ptr %2, i64 32
  store i32 %15, ptr %16, align 8
  %17 = call ptr @pg_strtok(ptr noundef nonnull %1) #10
  %18 = call ptr @pg_strtok(ptr noundef nonnull %1) #10
  %19 = load i8, ptr %18, align 1
  %20 = icmp eq i8 %19, 116
  %21 = getelementptr inbounds nuw i8, ptr %2, i64 36
  %22 = zext i1 %20 to i8
  store i8 %22, ptr %21, align 4
  call void @llvm.lifetime.end.p0(i64 4, ptr nonnull %1) #10
  ret ptr %2
}